; Function Attrs: mustprogress uwtable
define hidden void @_ZN3sat6solver13drat_log_unitENS_7literalENS_13justificationE(ptr noundef nonnull align 8 dereferenceable(4408) %this, i32 %lit.coerce, ptr nocapture noundef readonly byval(%"class.sat::justification") align 8 %j) local_unnamed_addr #3 align 2 personality ptr @__gxx_personality_v0 {
entry:
  %m_ext = getelementptr inbounds i8, ptr %this, i64 528
  %0 = load ptr, ptr %m_ext, align 8
  %cmp.i.not = icmp eq ptr %0, null
  br i1 %cmp.i.not, label %return, label %if.end

if.end:                                           ; preds = %entry
  %m_drating.i = getelementptr inbounds i8, ptr %0, i64 8
  store i8 1, ptr %m_drating.i, align 8
  %m_val2.i = getelementptr inbounds i8, ptr %j, i64 16
  %1 = load i32, ptr %m_val2.i, align 8
  %and.i = and i32 %1, 7
  %cmp = icmp eq i32 %and.i, 3
  br i1 %cmp, label %if.then5, label %if.else

if.then5:                                         ; preds = %if.end
  %agg.tmp6.sroa.2.0.j.sroa_idx = getelementptr inbounds i8, ptr %j, i64 8
  %agg.tmp6.sroa.2.0.copyload = load i64, ptr %agg.tmp6.sroa.2.0.j.sroa_idx, align 8
  %m_ext_antecedents.i = getelementptr inbounds i8, ptr %this, i64 4304
  %2 = load ptr, ptr %m_ext_antecedents.i, align 8
  %tobool.not.i.i = icmp eq ptr %2, null
  br i1 %tobool.not.i.i, label %_ZN6vectorIN3sat7literalELb0EjE5resetEv.exit.i, label %if.then.i.i

if.then.i.i:                                      ; preds = %if.then5
  %arrayidx.i.i = getelementptr inbounds i8, ptr %2, i64 -4
  store i32 0, ptr %arrayidx.i.i, align 4
  br label %_ZN6vectorIN3sat7literalELb0EjE5resetEv.exit.i

_ZN6vectorIN3sat7literalELb0EjE5resetEv.exit.i:   ; preds = %if.then.i.i, %if.then5
  %3 = load ptr, ptr %m_ext, align 8
  %vtable.i = load ptr, ptr %3, align 8
  %vfn.i = getelementptr inbounds i8, ptr %vtable.i, i64 80
  %4 = load ptr, ptr %vfn.i, align 8
  invoke void %4(ptr noundef nonnull align 8 dereferenceable(32) %3, i32 %lit.coerce, i64 noundef %agg.tmp6.sroa.2.0.copyload, ptr noundef nonnull align 8 dereferenceable(8) %m_ext_antecedents.i, i1 noundef zeroext false)
          to label %if.end12 unwind label %lpad

lpad:                                             ; preds = %_ZN6vectorIN3sat7literalELb0EjE5resetEv.exit.i, %if.else
  %5 = landingpad { ptr, i32 }
          cleanup
  store i8 0, ptr %m_drating.i, align 8
  resume { ptr, i32 } %5

if.else:                                          ; preds = %if.end
  %m_drat = getelementptr inbounds i8, ptr %this, i64 552
  %m_searching = getelementptr inbounds i8, ptr %this, i64 3337
  %6 = load i8, ptr %m_searching, align 1
  %7 = and i8 %6, 1
  %tobool = icmp ne i8 %7, 0
  invoke void @_ZN3sat4drat3addENS_7literalEb(ptr noundef nonnull align 8 dereferenceable(664) %m_drat, i32 %lit.coerce, i1 noundef zeroext %tobool)
          to label %if.end12 unwind label %lpad

if.end12:                                         ; preds = %_ZN6vectorIN3sat7literalELb0EjE5resetEv.exit.i, %if.else
  store i8 0, ptr %m_drating.i, align 8
  br label %return

return:                                           ; preds = %entry, %if.end12
  ret void
}